target datalayout = "e-m:e-p270:32:32-p271:32:32-p272:64:64-i64:64-i128:128-f80:128-n8:16:32:64-S128"
target triple = "x86_64-unknown-linux-gnu"

%class.rational = type { %class.mpq }
%class.mpq = type { %class.mpz, %class.mpz }
%class.mpz = type { i32, i8, ptr }
%class.symbol = type { ptr }
%"class.euf::th_solver" = type { %"class.sat::extension", %"class.euf::th_model_builder", %"class.euf::th_decompile", %"class.euf::th_internalizer", ptr }
%"class.sat::extension" = type { ptr, i8, i32, %class.symbol, ptr }
%"class.euf::th_model_builder" = type { ptr }
%"class.euf::th_decompile" = type { ptr }
%"class.euf::th_internalizer" = type { ptr, %class.ptr_vector, %class.svector }
%class.svector = type { %class.vector.0 }
%class.vector.0 = type { ptr }
%class.ptr_vector = type { %class.vector }
%class.vector = type { ptr }
%class.obj_ref = type { ptr, ptr }
%class.obj_ref.412 = type { ptr, ptr }

; Function Attrs: mustprogress nounwind uwtable
define linkonce_odr hidden void @_ZN3mpzC2Ei(ptr noundef nonnull align 8 dereferenceable(16) %this, i32 noundef %v) unnamed_addr #4 comdat align 2 {
entry:
  %this.addr = alloca ptr, align 8
  %v.addr = alloca i32, align 4
  store ptr %this, ptr %this.addr, align 8
  store i32 %v, ptr %v.addr, align 4
  %this1 = load ptr, ptr %this.addr, align 8
  %m_val = getelementptr inbounds %class.mpz, ptr %this1, i32 0, i32 0
  %0 = load i32, ptr %v.addr, align 4
  store i32 %0, ptr %m_val, align 8
  %m_kind = getelementptr inbounds %class.mpz, ptr %this1, i32 0, i32 1
  %bf.load = load i8, ptr %m_kind, align 4
  %bf.clear = and i8 %bf.load, -2
  %bf.set = or i8 %bf.clear, 0
  store i8 %bf.set, ptr %m_kind, align 4
  %m_owner = getelementptr inbounds %class.mpz, ptr %this1, i32 0, i32 1
  %bf.load2 = load i8, ptr %m_owner, align 4
  %bf.clear3 = and i8 %bf.load2, -3
  %bf.set4 = or i8 %bf.clear3, 0
  store i8 %bf.set4, ptr %m_owner, align 4
  %m_ptr = getelementptr inbounds %class.mpz, ptr %this1, i32 0, i32 2
  store ptr null, ptr %m_ptr, align 8
  ret void
}

; Function Attrs: mustprogress nounwind uwtable
define linkonce_odr hidden void @_ZN3mpzC2Ev(ptr noundef nonnull align 8 dereferenceable(16) %this) unnamed_addr #4 comdat align 2 {
entry:
  %this.addr = alloca ptr, align 8
  store ptr %this, ptr %this.addr, align 8
  %this1 = load ptr, ptr %this.addr, align 8
  %m_val = getelementptr inbounds %class.mpz, ptr %this1, i32 0, i32 0
  store i32 0, ptr %m_val, align 8
  %m_kind = getelementptr inbounds %class.mpz, ptr %this1, i32 0, i32 1
  %bf.load = load i8, ptr %m_kind, align 4
  %bf.clear = and i8 %bf.load, -2
  %bf.set = or i8 %bf.clear, 0
  store i8 %bf.set, ptr %m_kind, align 4
  %m_owner = getelementptr inbounds %class.mpz, ptr %this1, i32 0, i32 1
  %bf.load2 = load i8, ptr %m_owner, align 4
  %bf.clear3 = and i8 %bf.load2, -3
  %bf.set4 = or i8 %bf.clear3, 0
  store i8 %bf.set4, ptr %m_owner, align 4
  %m_ptr = getelementptr inbounds %class.mpz, ptr %this1, i32 0, i32 2
  store ptr null, ptr %m_ptr, align 8
  ret void
}

; Function Attrs: mustprogress uwtable
define linkonce_odr hidden void @_ZN3mpqC2Ev(ptr noundef nonnull align 8 dereferenceable(32) %this) unnamed_addr #5 comdat align 2 {
entry:
  %this.addr = alloca ptr, align 8
  store ptr %this, ptr %this.addr, align 8
  %this1 = load ptr, ptr %this.addr, align 8
  %m_num = getelementptr inbounds %class.mpq, ptr %this1, i32 0, i32 0
  call void @_ZN3mpzC2Ev(ptr noundef nonnull align 8 dereferenceable(16) %m_num)
  %m_den = getelementptr inbounds %class.mpq, ptr %this1, i32 0, i32 1
  call void @_ZN3mpzC2Ei(ptr noundef nonnull align 8 dereferenceable(16) %m_den, i32 noundef 1)
  ret void
}

; Function Attrs: mustprogress nounwind uwtable
define linkonce_odr hidden void @_ZN7obj_refI4expr11ast_managerEC2ERS1_(ptr noundef nonnull align 8 dereferenceable(16) %this, ptr noundef nonnull align 8 dereferenceable(976) %m) unnamed_addr #4 comdat align 2 {
entry:
  %this.addr = alloca ptr, align 8
  %m.addr = alloca ptr, align 8
  store ptr %this, ptr %this.addr, align 8
  store ptr %m, ptr %m.addr, align 8
  %this1 = load ptr, ptr %this.addr, align 8
  %m_obj = getelementptr inbounds %class.obj_ref, ptr %this1, i32 0, i32 0
  store ptr null, ptr %m_obj, align 8
  %m_manager = getelementptr inbounds %class.obj_ref, ptr %this1, i32 0, i32 1
  %0 = load ptr, ptr %m.addr, align 8
  store ptr %0, ptr %m_manager, align 8
  ret void
}

; Function Attrs: mustprogress uwtable
define linkonce_odr hidden void @_ZN8rationalC2Ev(ptr noundef nonnull align 8 dereferenceable(32) %this) unnamed_addr #5 comdat align 2 {
entry:
  %this.addr = alloca ptr, align 8
  store ptr %this, ptr %this.addr, align 8
  %this1 = load ptr, ptr %this.addr, align 8
  %m_val = getelementptr inbounds %class.rational, ptr %this1, i32 0, i32 0
  call void @_ZN3mpqC2Ev(ptr noundef nonnull align 8 dereferenceable(32) %m_val)
  ret void
}

; Function Attrs: mustprogress uwtable
define hidden void @_ZN5arith6solver8mk_boundERKN2lp8lar_termERK8rationalb(ptr noalias sret(%class.obj_ref.412) align 8 %agg.result, ptr noundef nonnull align 8 dereferenceable(1144) %this, ptr noundef nonnull align 8 dereferenceable(24) %term, ptr noundef nonnull align 8 dereferenceable(32) %k, i1 noundef zeroext %lower_bound) #5 align 2 personality ptr @__gxx_personality_v0 {
entry:
  %result.ptr = alloca ptr, align 8
  %this.addr = alloca ptr, align 8
  %term.addr = alloca ptr, align 8
  %k.addr = alloca ptr, align 8
  %lower_bound.addr = alloca i8, align 1
  %offset = alloca %class.rational, align 8
  %t = alloca %class.obj_ref, align 8
  %exn.slot = alloca ptr, align 8
  %ehselector.slot = alloca i32, align 4
  store ptr %agg.result, ptr %result.ptr, align 8
  store ptr %this, ptr %this.addr, align 8
  store ptr %term, ptr %term.addr, align 8
  store ptr %k, ptr %k.addr, align 8
  %frombool = zext i1 %lower_bound to i8
  store i8 %frombool, ptr %lower_bound.addr, align 1
  %this1 = load ptr, ptr %this.addr, align 8
  call void @_ZN8rationalC2Ev(ptr noundef nonnull align 8 dereferenceable(32) %offset)
  %m = getelementptr inbounds %"class.euf::th_solver", ptr %this1, i32 0, i32 4
  %0 = load ptr, ptr %m, align 8
  invoke void @_ZN7obj_refI4expr11ast_managerEC2ERS1_(ptr noundef nonnull align 8 dereferenceable(16) %t, ptr noundef nonnull align 8 dereferenceable(976) %0)
          to label %invoke.cont unwind label %lpad

invoke.cont:                                      ; preds = %entry
  %1 = load ptr, ptr %term.addr, align 8
  %2 = load ptr, ptr %k.addr, align 8
  %3 = load i8, ptr %lower_bound.addr, align 1
  %tobool = trunc i8 %3 to i1
  invoke void @_ZN5arith6solver8mk_boundERKN2lp8lar_termERK8rationalbRS5_R7obj_refI4expr11ast_managerE(ptr sret(%class.obj_ref.412) align 8 %agg.result, ptr noundef nonnull align 8 dereferenceable(1144) %this1, ptr noundef nonnull align 8 dereferenceable(24) %1, ptr noundef nonnull align 8 dereferenceable(32) %2, i1 noundef zeroext %tobool, ptr noundef nonnull align 8 dereferenceable(32) %offset, ptr noundef nonnull align 8 dereferenceable(16) %t)
          to label %invoke.cont3 unwind label %lpad2

invoke.cont3:                                     ; preds = %invoke.cont
  call void @_ZN7obj_refI4expr11ast_managerED2Ev(ptr noundef nonnull align 8 dereferenceable(16) %t) #3
  call void @_ZN8rationalD2Ev(ptr noundef nonnull align 8 dereferenceable(32) %offset) #3
  ret void

lpad:                                             ; preds = %entry
  %4 = landingpad { ptr, i32 }
          cleanup
  %5 = extractvalue { ptr, i32 } %4, 0
  store ptr %5, ptr %exn.slot, align 8
  %6 = extractvalue { ptr, i32 } %4, 1
  store i32 %6, ptr %ehselector.slot, align 4
  br label %ehcleanup

lpad2:                                            ; preds = %invoke.cont
  %7 = landingpad { ptr, i32 }
          cleanup
  %8 = extractvalue { ptr, i32 } %7, 0
  store ptr %8, ptr %exn.slot, align 8
  %9 = extractvalue { ptr, i32 } %7, 1
  store i32 %9, ptr %ehselector.slot, align 4
  call void @_ZN7obj_refI4expr11ast_managerED2Ev(ptr noundef nonnull align 8 dereferenceable(16) %t) #3
  br label %ehcleanup

ehcleanup:                                        ; preds = %lpad2, %lpad
  call void @_ZN8rationalD2Ev(ptr noundef nonnull align 8 dereferenceable(32) %offset) #3
  br label %eh.resume

eh.resume:                                        ; preds = %ehcleanup
  %exn = load ptr, ptr %exn.slot, align 8
  %sel = load i32, ptr %ehselector.slot, align 4
  %lpad.val = insertvalue { ptr, i32 } poison, ptr %exn, 0
  %lpad.val4 = insertvalue { ptr, i32 } %lpad.val, i32 %sel, 1
  resume { ptr, i32 } %lpad.val4
}