; Function Attrs: mustprogress uwtable
define hidden void @_ZN5arith6solver8mk_boundERKN2lp8lar_termERK8rationalb(ptr noalias sret(%class.obj_ref.412) align 8 %agg.result, ptr noundef nonnull align 8 dereferenceable(1144) %this, ptr nocapture noundef nonnull readonly align 8 dereferenceable(24) %term, ptr noundef nonnull align 8 dereferenceable(32) %k, i1 noundef zeroext %lower_bound) local_unnamed_addr #3 align 2 personality ptr @__gxx_personality_v0 {
entry:
  %offset = alloca %class.rational, align 8
  %t = alloca %class.obj_ref, align 8
  store i32 0, ptr %offset, align 8
  %m_kind.i.i.i = getelementptr inbounds i8, ptr %offset, i64 4
  store i8 0, ptr %m_kind.i.i.i, align 4
  %m_ptr.i.i.i = getelementptr inbounds i8, ptr %offset, i64 8
  store ptr null, ptr %m_ptr.i.i.i, align 8
  %m_den.i.i = getelementptr inbounds i8, ptr %offset, i64 16
  store i32 1, ptr %m_den.i.i, align 8
  %m_kind.i1.i.i = getelementptr inbounds i8, ptr %offset, i64 20
  store i8 0, ptr %m_kind.i1.i.i, align 4
  %m_ptr.i4.i.i = getelementptr inbounds i8, ptr %offset, i64 24
  store ptr null, ptr %m_ptr.i4.i.i, align 8
  %m = getelementptr inbounds i8, ptr %this, i64 72
  %0 = load ptr, ptr %m, align 8
  store ptr null, ptr %t, align 8
  %m_manager.i = getelementptr inbounds i8, ptr %t, i64 8
  store ptr %0, ptr %m_manager.i, align 8
  invoke void @_ZN5arith6solver8mk_boundERKN2lp8lar_termERK8rationalbRS5_R7obj_refI4expr11ast_managerE(ptr sret(%class.obj_ref.412) align 8 %agg.result, ptr noundef nonnull align 8 dereferenceable(1144) %this, ptr noundef nonnull align 8 dereferenceable(24) %term, ptr noundef nonnull align 8 dereferenceable(32) %k, i1 noundef zeroext %lower_bound, ptr noundef nonnull align 8 dereferenceable(32) %offset, ptr noundef nonnull align 8 dereferenceable(16) %t)
          to label %invoke.cont3 unwind label %lpad2

invoke.cont3:                                     ; preds = %entry
  %1 = load ptr, ptr %t, align 8
  %tobool.not.i.i = icmp eq ptr %1, null
  br i1 %tobool.not.i.i, label %_ZN7obj_refI4expr11ast_managerED2Ev.exit, label %if.then.i.i.i

if.then.i.i.i:                                    ; preds = %invoke.cont3
  %2 = load ptr, ptr %m_manager.i, align 8
  %m_ref_count.i.i.i.i = getelementptr inbounds i8, ptr %1, i64 8
  %3 = load i32, ptr %m_ref_count.i.i.i.i, align 4
  %dec.i.i.i.i = add i32 %3, -1
  store i32 %dec.i.i.i.i, ptr %m_ref_count.i.i.i.i, align 4
  %cmp.i.i.i = icmp eq i32 %dec.i.i.i.i, 0
  br i1 %cmp.i.i.i, label %if.then2.i.i.i, label %_ZN7obj_refI4expr11ast_managerED2Ev.exit

if.then2.i.i.i:                                   ; preds = %if.then.i.i.i
  invoke void @_ZN11ast_manager11delete_nodeEP3ast(ptr noundef nonnull align 8 dereferenceable(976) %2, ptr noundef nonnull %1)
          to label %_ZN7obj_refI4expr11ast_managerED2Ev.exit unwind label %terminate.lpad.i

terminate.lpad.i:                                 ; preds = %if.then2.i.i.i
  %4 = landingpad { ptr, i32 }
          catch ptr null
  %5 = extractvalue { ptr, i32 } %4, 0
  call void @__clang_call_terminate(ptr %5) #24
  unreachable

_ZN7obj_refI4expr11ast_managerED2Ev.exit:         ; preds = %invoke.cont3, %if.then.i.i.i, %if.then2.i.i.i
  %6 = load ptr, ptr @_ZN8rational13g_mpq_managerE, align 8
  invoke void @_ZN11mpz_managerILb1EE3delEPS0_R3mpz(ptr noundef %6, ptr noundef nonnull align 8 dereferenceable(16) %offset)
          to label %.noexc.i unwind label %terminate.lpad.i1

.noexc.i:                                         ; preds = %_ZN7obj_refI4expr11ast_managerED2Ev.exit
  invoke void @_ZN11mpz_managerILb1EE3delEPS0_R3mpz(ptr noundef %6, ptr noundef nonnull align 8 dereferenceable(16) %m_den.i.i)
          to label %_ZN8rationalD2Ev.exit unwind label %terminate.lpad.i1

terminate.lpad.i1:                                ; preds = %.noexc.i, %_ZN7obj_refI4expr11ast_managerED2Ev.exit
  %7 = landingpad { ptr, i32 }
          catch ptr null
  %8 = extractvalue { ptr, i32 } %7, 0
  call void @__clang_call_terminate(ptr %8) #24
  unreachable

_ZN8rationalD2Ev.exit:                            ; preds = %.noexc.i
  ret void

lpad2:                                            ; preds = %entry
  %9 = landingpad { ptr, i32 }
          cleanup
  call void @_ZN7obj_refI4expr11ast_managerED2Ev(ptr noundef nonnull align 8 dereferenceable(16) %t) #23
  call void @_ZN8rationalD2Ev(ptr noundef nonnull align 8 dereferenceable(32) %offset) #23
  resume { ptr, i32 } %9
}